Certificate:
    Data:
        Version: 1 (0x0)
        Serial Number: 4661 (0x1235)
        Signature Algorithm: sha256WithRSAEncryption
        Issuer: C=FR, ST=Seine-Maritime, O=M2SSI, CN=CA-projet-admin
        Validity
            Not Before: Jan 11 17:34:20 2024 GMT
            Not After : Jan 10 17:34:20 2025 GMT
        Subject: C=FR, ST=Seine-Maritime, O=M2SSI, CN=localhost
        Subject Public Key Info:
            Public Key Algorithm: rsaEncryption
                Public-Key: (2048 bit)
                Modulus:
                    00:a6:89:b6:28:03:1e:7c:90:47:c8:3c:48:f2:f9:
                    b0:f9:31:a8:27:56:0e:ed:bf:ea:4f:5a:e9:c5:66:
                    f2:d8:81:c6:ee:8a:28:c9:63:b8:93:07:89:a5:bb:
                    96:fe:10:87:d9:7a:fe:ea:1b:ee:e0:ba:5d:11:bf:
                    fd:58:0b:75:9a:d5:c9:58:c6:f9:a3:a3:77:7c:8d:
                    c1:81:d7:f5:be:92:da:ea:c2:19:6d:6c:c8:01:9f:
                    bb:71:c0:77:d6:c1:3a:56:62:da:c7:02:b1:c2:83:
                    36:3a:bc:e9:3b:10:b2:21:85:74:a1:0a:42:77:43:
                    c0:2a:fd:a0:d6:dd:6b:87:32:5e:a3:dc:09:b4:5e:
                    dc:a8:e5:f7:ed:d1:97:b7:5f:59:e9:ea:9d:78:65:
                    b1:20:84:ca:7c:07:a8:66:9e:f6:d3:67:fe:9d:ca:
                    db:9d:13:6c:09:4f:db:6c:08:3f:0c:00:ff:ff:58:
                    ec:83:24:b2:48:1c:90:79:3a:88:21:f4:23:c6:d1:
                    50:73:e1:61:c8:82:65:44:66:b1:63:7a:81:9b:c4:
                    c8:b0:f3:17:ad:fb:42:47:cb:c1:c5:b0:a4:be:80:
                    a3:5a:de:21:f7:a1:46:83:94:a8:04:fc:bd:e4:2b:
                    b7:59:cc:3d:bd:e1:36:f0:c1:ed:f6:dd:e8:f1:c5:
                    65:b5
                Exponent: 65537 (0x10001)
    Signature Algorithm: sha256WithRSAEncryption
    Signature Value:
        43:8b:08:71:41:cd:ec:2b:c2:ea:45:e7:7f:63:4e:00:f2:33:
        64:97:81:2a:00:a6:1d:a5:d0:ad:e4:5f:e5:ed:aa:82:14:a8:
        3a:b5:80:75:de:4a:66:e2:df:9d:b0:bf:6d:c3:82:e5:44:e6:
        4d:e6:0b:b2:2a:8f:53:0d:47:73:94:02:cc:8e:a1:41:78:3a:
        2f:df:87:d6:b9:5f:e4:48:95:0c:c3:47:51:50:1e:86:fe:77:
        77:d1:65:91:76:67:bf:44:dc:6a:7a:9b:ed:78:eb:09:3c:f6:
        58:3e:f0:2b:66:8e:36:5e:c7:ba:a4:a5:e8:15:97:f6:de:09:
        fc:9a:96:d6:73:62:23:78:91:cc:e9:48:35:c5:53:35:e9:d5:
        9d:06:e6:06:6b:11:b5:51:a9:10:bc:dc:70:fe:d8:0e:6f:ff:
        d6:67:38:e6:d5:05:2f:1b:fc:13:07:63:92:78:ee:f3:b1:01:
        1a:7e:9e:a9:64:3d:ea:15:0d:9c:84:43:07:92:11:3b:2d:2d:
        63:77:fb:43:dd:f1:6c:65:51:67:02:94:4d:7b:d1:11:17:8c:
        61:99:11:19:a6:dd:5f:f0:bc:d7:85:cd:10:53:87:75:f1:a4:
        73:b2:78:ff:92:ec:ea:8f:52:f7:84:4f:cc:56:8e:fd:c2:8b:
        62:fa:4d:71
-----BEGIN CERTIFICATE-----
MIIDDzCCAfcCAhI1MA0GCSqGSIb3DQEBCwUAMFAxCzAJBgNVBAYTAkZSMRcwFQYD
VQQIDA5TZWluZS1NYXJpdGltZTEOMAwGA1UECgwFTTJTU0kxGDAWBgNVBAMMD0NB
LXByb2pldC1hZG1pbjAeFw0yNDAxMTExNzM0MjBaFw0yNTAxMTAxNzM0MjBaMEox
CzAJBgNVBAYTAkZSMRcwFQYDVQQIDA5TZWluZS1NYXJpdGltZTEOMAwGA1UECgwF
TTJTU0kxEjAQBgNVBAMMCWxvY2FsaG9zdDCCASIwDQYJKoZIhvcNAQEBBQADggEP
ADCCAQoCggEBAKaJtigDHnyQR8g8SPL5sPkxqCdWDu2/6k9a6cVm8tiBxu6KKMlj
uJMHiaW7lv4Qh9l6/uob7uC6XRG//VgLdZrVyVjG+aOjd3yNwYHX9b6S2urCGW1s
yAGfu3HAd9bBOlZi2scCscKDNjq86TsQsiGFdKEKQndDwCr9oNbda4cyXqPcCbRe
3Kjl9+3Rl7dfWenqnXhlsSCEynwHqGae9tNn/p3K250TbAlP22wIPwwA//9Y7IMk
skgckHk6iCH0I8bRUHPhYciCZURmsWN6gZvEyLDzF637QkfLwcWwpL6Ao1reIfeh
RoOUqAT8veQrt1nMPb3hNvDB7fbd6PHFZbUCAwEAATANBgkqhkiG9w0BAQsFAAOC
AQEAQ4sIcUHN7CvC6kXnf2NOAPIzZJeBKgCmHaXQreRf5e2qghSoOrWAdd5KZuLf
nbC/bcOC5UTmTeYLsiqPUw1Hc5QCzI6hQXg6L9+H1rlf5EiVDMNHUVAehv53d9Fl
kXZnv0Tcanqb7XjrCTz2WD7wK2aONl7HuqSl6BWX9t4J/JqW1nNiI3iRzOlINcVT
NenVnQbmBmsRtVGpELzccP7YDm//1mc45tUFLxv8Ewdjknju87EBGn6eqWQ96hUN
nIRDB5IROy0tY3f7Q93xbGVRZwKUTXvREReMYZkRGabdX/C814XNEFOHdfGkc7J4
/5Ls6o9S94RPzFaO/cKLYvpNcQ==
-----END CERTIFICATE-----
